Certificate:
    Data:
        Version: 3 (0x2)
        Serial Number:
            3c:24:4d:40:40:ab:1a:b7:a1:40:e5:24:72:f3:6f:a7:ca:aa:67:6e
        Signature Algorithm: sha256WithRSAEncryption
        Issuer: CN = localhost
        Validity
            Not Before: Mar  5 08:50:45 2021 GMT
            Not After : Apr  4 08:50:45 2021 GMT
        Subject: CN = localhost
        Subject Public Key Info:
            Public Key Algorithm: rsaEncryption
                RSA Public-Key: (2048 bit)
                Modulus:
                    00:f0:f2:82:0a:d7:ef:b6:8d:d0:2a:4e:93:71:2b:
                    ad:27:e8:8c:0f:79:7a:21:9a:98:be:99:b8:de:4f:
                    22:44:28:74:f2:89:7d:ec:6b:f7:c6:e4:99:7e:68:
                    6b:52:d9:51:57:bc:37:6f:c6:e9:f5:9d:7d:24:32:
                    c7:e4:8c:d5:7b:16:2d:b4:b7:ac:ad:0d:3a:1c:83:
                    45:1b:c9:13:e7:cf:83:49:50:11:a9:bd:1e:f2:13:
                    db:20:6b:4c:cd:41:b4:fc:cb:90:c9:10:bc:8f:46:
                    c6:9c:dd:64:d8:3c:3c:c4:ea:72:35:e8:5a:29:27:
                    be:26:4e:16:e4:22:66:2b:a4:f8:37:76:fe:97:c1:
                    d4:fe:58:83:a8:a3:69:10:8d:99:63:a2:08:5b:af:
                    3c:0c:ab:4b:69:99:a3:f9:c3:8f:cb:12:50:3b:92:
                    27:6c:41:64:57:43:b5:65:6e:10:db:df:8d:fe:bc:
                    f8:c2:9b:55:bf:7b:52:c5:78:39:75:69:5b:3d:04:
                    7c:2a:b4:ee:42:c2:6e:fb:72:88:a9:cd:df:c5:4f:
                    72:06:3d:6e:c6:f1:39:9d:d9:02:a7:22:db:a9:16:
                    2b:15:d5:af:64:2f:e8:b6:38:8d:15:1c:ad:00:29:
                    1c:18:23:83:64:02:31:28:5f:3d:27:7c:93:3a:96:
                    ce:b1
                Exponent: 65537 (0x10001)
        X509v3 extensions:
            X509v3 Subject Key Identifier: 
                D8:8A:F8:32:37:33:A5:0E:D7:E9:E1:72:5D:C9:DE:E5:61:7B:FC:A3
            X509v3 Authority Key Identifier: 
                keyid:D8:8A:F8:32:37:33:A5:0E:D7:E9:E1:72:5D:C9:DE:E5:61:7B:FC:A3

            X509v3 Basic Constraints: critical
                CA:TRUE
    Signature Algorithm: sha256WithRSAEncryption
         d7:b1:5e:54:01:fe:a0:c3:d1:5e:95:39:38:36:c0:b5:82:b3:
         17:d7:b7:24:4e:53:97:42:a3:3c:7b:02:52:8d:7b:f4:65:80:
         4d:31:21:90:7c:70:5a:68:60:84:32:b3:db:5f:0e:66:32:06:
         c4:9b:82:6c:21:a3:8e:14:93:e4:06:bf:87:82:56:bf:2e:f6:
         a3:85:59:57:30:98:6d:a3:14:30:31:3f:cd:1d:1e:ea:ed:ad:
         8b:cd:b9:0e:61:21:87:5d:e7:a1:74:7e:3d:63:1f:2a:cb:7e:
         3b:c9:55:f9:5f:4d:56:96:d1:77:ca:25:38:eb:63:22:95:58:
         43:6d:89:1e:bc:d9:22:f7:f5:7c:e1:1c:ef:ed:1c:78:0d:a1:
         a5:51:8e:72:67:73:cb:9d:b5:98:cc:d6:a4:34:98:fa:44:55:
         3d:72:b1:7c:83:26:d6:a7:18:86:16:82:19:f9:dd:13:f2:5c:
         15:a2:2d:d2:b6:05:f9:5c:59:40:36:91:81:75:5e:19:ea:77:
         37:ed:ab:1e:d0:93:7a:d4:e1:d2:f7:a6:fd:32:19:37:59:bc:
         74:e8:26:f8:e1:31:a3:d7:8a:a8:bd:33:03:e8:2a:cf:be:8d:
         d7:c6:bc:e3:f8:86:8a:29:10:32:06:73:40:c2:97:f0:69:5d:
         f1:89:56:46
-----BEGIN CERTIFICATE-----
MIIDCTCCAfGgAwIBAgIUPCRNQECrGrehQOUkcvNvp8qqZ24wDQYJKoZIhvcNAQEL
BQAwFDESMBAGA1UEAwwJbG9jYWxob3N0MB4XDTIxMDMwNTA4NTA0NVoXDTIxMDQw
NDA4NTA0NVowFDESMBAGA1UEAwwJbG9jYWxob3N0MIIBIjANBgkqhkiG9w0BAQEF
AAOCAQ8AMIIBCgKCAQEA8PKCCtfvto3QKk6TcSutJ+iMD3l6IZqYvpm43k8iRCh0
8ol97Gv3xuSZfmhrUtlRV7w3b8bp9Z19JDLH5IzVexYttLesrQ06HINFG8kT58+D
SVARqb0e8hPbIGtMzUG0/MuQyRC8j0bGnN1k2Dw8xOpyNehaKSe+Jk4W5CJmK6T4
N3b+l8HU/liDqKNpEI2ZY6IIW688DKtLaZmj+cOPyxJQO5InbEFkV0O1ZW4Q29+N
/rz4wptVv3tSxXg5dWlbPQR8KrTuQsJu+3KIqc3fxU9yBj1uxvE5ndkCpyLbqRYr
FdWvZC/otjiNFRytACkcGCODZAIxKF89J3yTOpbOsQIDAQABo1MwUTAdBgNVHQ4E
FgQU2Ir4MjczpQ7X6eFyXcne5WF7/KMwHwYDVR0jBBgwFoAU2Ir4MjczpQ7X6eFy
Xcne5WF7/KMwDwYDVR0TAQH/BAUwAwEB/zANBgkqhkiG9w0BAQsFAAOCAQEA17Fe
VAH+oMPRXpU5ODbAtYKzF9e3JE5Tl0KjPHsCUo179GWATTEhkHxwWmhghDKz218O
ZjIGxJuCbCGjjhST5Aa/h4JWvy72o4VZVzCYbaMUMDE/zR0e6u2ti825DmEhh13n
oXR+PWMfKst+O8lV+V9NVpbRd8olOOtjIpVYQ22JHrzZIvf1fOEc7+0ceA2hpVGO
cmdzy521mMzWpDSY+kRVPXKxfIMm1qcYhhaCGfndE/JcFaIt0rYF+VxZQDaRgXVe
Gep3N+2rHtCTetTh0vem/TIZN1m8dOgm+OExo9eKqL0zA+gqz76N18a84/iGiikQ
MgZzQMKX8Gld8YlWRg==
-----END CERTIFICATE-----

